; Function Attrs: nounwind uwtable
define ptr @l_Lean_MVarId_changeLocalDecl___lambda__2(ptr noundef %0, ptr noundef %1, i8 noundef zeroext %2, ptr noundef %3, ptr noundef %4, ptr noundef %5, ptr noundef %6, ptr noundef %7, ptr noundef %8, ptr noundef %9) local_unnamed_addr #0 {
  %11 = ptrtoint ptr %3 to i64
  %12 = and i64 %11, 1
  %.not = icmp eq i64 %12, 0
  br i1 %.not, label %13, label %lean_inc.exit

13:                                               ; preds = %10
  %.val.i = load i32, ptr %3, align 4, !tbaa !4
  %14 = icmp sgt i32 %.val.i, 0
  br i1 %14, label %15, label %17, !prof !9

15:                                               ; preds = %13
  %16 = add nuw i32 %.val.i, 1
  store i32 %16, ptr %3, align 4, !tbaa !4
  br label %lean_inc.exit

17:                                               ; preds = %13
  %.not.i = icmp eq i32 %.val.i, 0
  br i1 %.not.i, label %lean_inc.exit, label %18

18:                                               ; preds = %17
  tail call void @lean_inc_ref_cold(ptr noundef nonnull %3) #4
  br label %lean_inc.exit

lean_inc.exit:                                    ; preds = %18, %17, %15, %10
  tail call void @lean_inc_heartbeat() #4
  %19 = tail call noalias ptr @mi_malloc_small(i64 noundef 64) #4
  %20 = icmp eq ptr %19, null
  br i1 %20, label %21, label %lean_alloc_closure.exit

21:                                               ; preds = %lean_inc.exit
  tail call void @lean_internal_panic_out_of_memory() #5
  unreachable

lean_alloc_closure.exit:                          ; preds = %lean_inc.exit
  %22 = zext i8 %2 to i64
  %23 = shl nuw nsw i64 %22, 1
  %24 = or disjoint i64 %23, 1
  %25 = inttoptr i64 %24 to ptr
  %26 = getelementptr inbounds nuw i8, ptr %19, i64 4
  store i32 1, ptr %19, align 4, !tbaa !4
  store i32 -184549312, ptr %26, align 4
  %27 = getelementptr inbounds nuw i8, ptr %19, i64 8
  store ptr @l_Lean_MVarId_changeLocalDecl___lambda__1___boxed, ptr %27, align 8, !tbaa !10
  %28 = getelementptr inbounds nuw i8, ptr %19, i64 16
  store i16 10, ptr %28, align 8, !tbaa !14
  %29 = getelementptr inbounds nuw i8, ptr %19, i64 18
  store i16 5, ptr %29, align 2, !tbaa !14
  %30 = getelementptr inbounds nuw i8, ptr %19, i64 24
  store ptr %3, ptr %30, align 8, !tbaa !10
  %31 = getelementptr inbounds nuw i8, ptr %19, i64 32
  store ptr %0, ptr %31, align 8, !tbaa !10
  %32 = getelementptr inbounds nuw i8, ptr %19, i64 40
  store ptr %1, ptr %32, align 8, !tbaa !10
  %33 = getelementptr inbounds nuw i8, ptr %19, i64 48
  store ptr %4, ptr %33, align 8, !tbaa !10
  %34 = getelementptr inbounds nuw i8, ptr %19, i64 56
  store ptr %25, ptr %34, align 8, !tbaa !10
  %35 = tail call ptr @l_Lean_MVarId_withContext___at___private_Lean_Meta_SynthInstance_0__Lean_Meta_synthPendingImp___spec__2___rarg(ptr noundef %3, ptr noundef nonnull %19, ptr noundef %5, ptr noundef %6, ptr noundef %7, ptr noundef %8, ptr noundef %9) #4
  ret ptr %35
}